(lp0
S'ShutterTime:1#############ISO:100'
p1
aS'ShutterTime:0#############ISO:100'
p2
aS'ShutterTime:0#############ISO:100'
p3
aS'ShutterTime:0#############ISO:100'
p4
aS'ShutterTime:0#############ISO:100'
p5
aS'ShutterTime:0#############ISO:100'
p6
aS'ShutterTime:0#############ISO:100'
p7
a.